; ModuleID = '25/905.cpp'
source_filename = "25/905.cpp"
target datalayout = "e-m:e-p270:32:32-p271:32:32-p272:64:64-i64:64-f80:128-n8:16:32:64-S128"
target triple = "x86_64-pc-linux-gnu"

%"class.std::ios_base::Init" = type { i8 }
%"class.std::basic_istream" = type { i32 (...)**, i64, %"class.std::basic_ios" }
%"class.std::basic_ios" = type { %"class.std::ios_base", %"class.std::basic_ostream"*, i8, i8, %"class.std::basic_streambuf"*, %"class.std::ctype"*, %"class.std::num_put"*, %"class.std::num_get"* }
%"class.std::ios_base" = type { i32 (...)**, i64, i64, i32, i32, i32, %"struct.std::ios_base::_Callback_list"*, %"struct.std::ios_base::_Words", [8 x %"struct.std::ios_base::_Words"], i32, %"struct.std::ios_base::_Words"*, %"class.std::locale" }
%"struct.std::ios_base::_Callback_list" = type { %"struct.std::ios_base::_Callback_list"*, void (i32, %"class.std::ios_base"*, i32)*, i32, i32 }
%"struct.std::ios_base::_Words" = type { i8*, i64 }
%"class.std::locale" = type { %"class.std::locale::_Impl"* }
%"class.std::locale::_Impl" = type { i32, %"class.std::locale::facet"**, i64, %"class.std::locale::facet"**, i8** }
%"class.std::locale::facet" = type <{ i32 (...)**, i32, [4 x i8] }>
%"class.std::basic_ostream" = type { i32 (...)**, %"class.std::basic_ios" }
%"class.std::basic_streambuf" = type { i32 (...)**, i8*, i8*, i8*, i8*, i8*, i8*, %"class.std::locale" }
%"class.std::ctype" = type <{ %"class.std::locale::facet.base", [4 x i8], %struct.__locale_struct*, i8, [7 x i8], i32*, i32*, i16*, i8, [256 x i8], [256 x i8], i8, [6 x i8] }>
%"class.std::locale::facet.base" = type <{ i32 (...)**, i32 }>
%struct.__locale_struct = type { [13 x %struct.__locale_data*], i16*, i32*, i32*, [13 x i8*] }
%struct.__locale_data = type opaque
%"class.std::num_put" = type { %"class.std::locale::facet.base", [4 x i8] }
%"class.std::num_get" = type { %"class.std::locale::facet.base", [4 x i8] }

@_ZStL8__ioinit = internal global %"class.std::ios_base::Init" zeroinitializer, align 1
@__dso_handle = external hidden global i8
@s = dso_local global [200 x i8] zeroinitializer, align 16
@st = dso_local global [200 x i8] zeroinitializer, align 16
@sw = dso_local global [200 x i8] zeroinitializer, align 16
@N = dso_local global i32 0, align 4
@_ZSt3cin = external dso_local global %"class.std::basic_istream", align 8
@_ZSt4cout = external dso_local global %"class.std::basic_ostream", align 8
@llvm.global_ctors = appending global [1 x { i32, void ()*, i8* }] [{ i32, void ()*, i8* } { i32 65535, void ()* @_GLOBAL__sub_I_905.cpp, i8* null }]

; Function Attrs: noinline uwtable
define internal void @__cxx_global_var_init() #0 section ".text.startup" {
  call void @_ZNSt8ios_base4InitC1Ev(%"class.std::ios_base::Init"* @_ZStL8__ioinit)
  %1 = call i32 @__cxa_atexit(void (i8*)* bitcast (void (%"class.std::ios_base::Init"*)* @_ZNSt8ios_base4InitD1Ev to void (i8*)*), i8* getelementptr inbounds (%"class.std::ios_base::Init", %"class.std::ios_base::Init"* @_ZStL8__ioinit, i32 0, i32 0), i8* @__dso_handle) #3
  ret void
}

declare dso_local void @_ZNSt8ios_base4InitC1Ev(%"class.std::ios_base::Init"*) unnamed_addr #1

; Function Attrs: nounwind
declare dso_local void @_ZNSt8ios_base4InitD1Ev(%"class.std::ios_base::Init"*) unnamed_addr #2

; Function Attrs: nounwind
declare dso_local i32 @__cxa_atexit(void (i8*)*, i8*, i8*) #3

; Function Attrs: noinline uwtable
define dso_local void @_Z5multii(i32 %0) #0 {
  %2 = alloca i32, align 4
  %3 = alloca i32, align 4
  store i32 %0, i32* %2, align 4
  %4 = load i32, i32* %2, align 4
  %5 = load i32, i32* @N, align 4
  %6 = icmp eq i32 %4, %5
  br i1 %6, label %7, label %8

7:                                                ; preds = %1
  br label %66

8:                                                ; preds = %1
  store i8 0, i8* getelementptr inbounds ([200 x i8], [200 x i8]* @st, i64 0, i64 0), align 16
  store i32 0, i32* %3, align 4
  br label %9

9:                                                ; preds = %53, %8
  %10 = load i32, i32* %3, align 4
  %11 = sext i32 %10 to i64
  %12 = call i64 @strlen(i8* getelementptr inbounds ([200 x i8], [200 x i8]* @sw, i64 0, i64 0)) #6
  %13 = icmp ult i64 %11, %12
  br i1 %13, label %14, label %56

14:                                               ; preds = %9
  %15 = load i32, i32* %3, align 4
  %16 = sext i32 %15 to i64
  %17 = getelementptr inbounds [200 x i8], [200 x i8]* @s, i64 0, i64 %16
  %18 = load i8, i8* %17, align 1
  %19 = sext i8 %18 to i32
  %20 = mul nsw i32 %19, 2
  %21 = load i32, i32* %3, align 4
  %22 = sext i32 %21 to i64
  %23 = getelementptr inbounds [200 x i8], [200 x i8]* @st, i64 0, i64 %22
  %24 = load i8, i8* %23, align 1
  %25 = sext i8 %24 to i32
  %26 = add nsw i32 %20, %25
  %27 = sdiv i32 %26, 10
  %28 = trunc i32 %27 to i8
  %29 = load i32, i32* %3, align 4
  %30 = add nsw i32 %29, 1
  %31 = sext i32 %30 to i64
  %32 = getelementptr inbounds [200 x i8], [200 x i8]* @st, i64 0, i64 %31
  store i8 %28, i8* %32, align 1
  %33 = load i32, i32* %3, align 4
  %34 = sext i32 %33 to i64
  %35 = getelementptr inbounds [200 x i8], [200 x i8]* @s, i64 0, i64 %34
  %36 = load i8, i8* %35, align 1
  %37 = sext i8 %36 to i32
  %38 = mul nsw i32 %37, 2
  %39 = load i32, i32* %3, align 4
  %40 = sext i32 %39 to i64
  %41 = getelementptr inbounds [200 x i8], [200 x i8]* @st, i64 0, i64 %40
  %42 = load i8, i8* %41, align 1
  %43 = sext i8 %42 to i32
  %44 = add nsw i32 %38, %43
  %45 = srem i32 %44, 10
  %46 = trunc i32 %45 to i8
  %47 = load i32, i32* %3, align 4
  %48 = sext i32 %47 to i64
  %49 = getelementptr inbounds [200 x i8], [200 x i8]* @s, i64 0, i64 %48
  store i8 %46, i8* %49, align 1
  %50 = load i32, i32* %3, align 4
  %51 = sext i32 %50 to i64
  %52 = getelementptr inbounds [200 x i8], [200 x i8]* @sw, i64 0, i64 %51
  store i8 120, i8* %52, align 1
  br label %53

53:                                               ; preds = %14
  %54 = load i32, i32* %3, align 4
  %55 = add nsw i32 %54, 1
  store i32 %55, i32* %3, align 4
  br label %9

56:                                               ; preds = %9
  %57 = call i64 @strlen(i8* getelementptr inbounds ([200 x i8], [200 x i8]* @sw, i64 0, i64 0)) #6
  %58 = getelementptr inbounds [200 x i8], [200 x i8]* @st, i64 0, i64 %57
  %59 = load i8, i8* %58, align 1
  %60 = call i64 @strlen(i8* getelementptr inbounds ([200 x i8], [200 x i8]* @sw, i64 0, i64 0)) #6
  %61 = getelementptr inbounds [200 x i8], [200 x i8]* @s, i64 0, i64 %60
  store i8 %59, i8* %61, align 1
  %62 = call i64 @strlen(i8* getelementptr inbounds ([200 x i8], [200 x i8]* @sw, i64 0, i64 0)) #6
  %63 = getelementptr inbounds [200 x i8], [200 x i8]* @sw, i64 0, i64 %62
  store i8 120, i8* %63, align 1
  %64 = load i32, i32* %2, align 4
  %65 = add nsw i32 %64, 1
  call void @_Z5multii(i32 %65)
  br label %66

66:                                               ; preds = %7, %56
  ret void
}

; Function Attrs: nounwind readonly
declare dso_local i64 @strlen(i8*) #4

; Function Attrs: noinline norecurse uwtable
define dso_local i32 @main() #5 {
  %1 = alloca i32, align 4
  %2 = alloca i32, align 4
  %3 = alloca i32, align 4
  %4 = alloca i32, align 4
  store i32 0, i32* %1, align 4
  %5 = call dereferenceable(280) %"class.std::basic_istream"* @_ZNSirsERi(%"class.std::basic_istream"* @_ZSt3cin, i32* dereferenceable(4) @N)
  store i8 1, i8* getelementptr inbounds ([200 x i8], [200 x i8]* @s, i64 0, i64 0), align 16
  store i8 0, i8* getelementptr inbounds ([200 x i8], [200 x i8]* @st, i64 0, i64 0), align 16
  store i8 120, i8* getelementptr inbounds ([200 x i8], [200 x i8]* @sw, i64 0, i64 0), align 16
  call void @_Z5multii(i32 0)
  %6 = call i64 @strlen(i8* getelementptr inbounds ([200 x i8], [200 x i8]* @sw, i64 0, i64 0)) #6
  %7 = trunc i64 %6 to i32
  store i32 %7, i32* %3, align 4
  br label %8

8:                                                ; preds = %28, %0
  %9 = load i32, i32* %3, align 4
  %10 = icmp sge i32 %9, 0
  br i1 %10, label %11, label %31

11:                                               ; preds = %8
  %12 = load i32, i32* %3, align 4
  %13 = sext i32 %12 to i64
  %14 = getelementptr inbounds [200 x i8], [200 x i8]* @s, i64 0, i64 %13
  %15 = load i8, i8* %14, align 1
  %16 = sext i8 %15 to i32
  %17 = add nsw i32 %16, 48
  %18 = trunc i32 %17 to i8
  store i8 %18, i8* %14, align 1
  %19 = load i32, i32* %3, align 4
  %20 = sext i32 %19 to i64
  %21 = getelementptr inbounds [200 x i8], [200 x i8]* @s, i64 0, i64 %20
  %22 = load i8, i8* %21, align 1
  %23 = sext i8 %22 to i32
  %24 = icmp ne i32 %23, 48
  br i1 %24, label %25, label %27

25:                                               ; preds = %11
  %26 = load i32, i32* %3, align 4
  store i32 %26, i32* %2, align 4
  br label %31

27:                                               ; preds = %11
  br label %28

28:                                               ; preds = %27
  %29 = load i32, i32* %3, align 4
  %30 = add nsw i32 %29, -1
  store i32 %30, i32* %3, align 4
  br label %8

31:                                               ; preds = %25, %8
  %32 = load i32, i32* %2, align 4
  %33 = sext i32 %32 to i64
  %34 = getelementptr inbounds [200 x i8], [200 x i8]* @s, i64 0, i64 %33
  %35 = load i8, i8* %34, align 1
  %36 = sext i8 %35 to i32
  %37 = sub nsw i32 %36, 48
  %38 = trunc i32 %37 to i8
  store i8 %38, i8* %34, align 1
  %39 = load i32, i32* %2, align 4
  store i32 %39, i32* %4, align 4
  br label %40

40:                                               ; preds = %56, %31
  %41 = load i32, i32* %4, align 4
  %42 = icmp sge i32 %41, 0
  br i1 %42, label %43, label %59

43:                                               ; preds = %40
  %44 = load i32, i32* %4, align 4
  %45 = sext i32 %44 to i64
  %46 = getelementptr inbounds [200 x i8], [200 x i8]* @s, i64 0, i64 %45
  %47 = load i8, i8* %46, align 1
  %48 = sext i8 %47 to i32
  %49 = add nsw i32 %48, 48
  %50 = trunc i32 %49 to i8
  store i8 %50, i8* %46, align 1
  %51 = load i32, i32* %4, align 4
  %52 = sext i32 %51 to i64
  %53 = getelementptr inbounds [200 x i8], [200 x i8]* @s, i64 0, i64 %52
  %54 = load i8, i8* %53, align 1
  %55 = call dereferenceable(272) %"class.std::basic_ostream"* @_ZStlsISt11char_traitsIcEERSt13basic_ostreamIcT_ES5_c(%"class.std::basic_ostream"* dereferenceable(272) @_ZSt4cout, i8 signext %54)
  br label %56

56:                                               ; preds = %43
  %57 = load i32, i32* %4, align 4
  %58 = add nsw i32 %57, -1
  store i32 %58, i32* %4, align 4
  br label %40

59:                                               ; preds = %40
  ret i32 0
}

declare dso_local dereferenceable(280) %"class.std::basic_istream"* @_ZNSirsERi(%"class.std::basic_istream"*, i32* dereferenceable(4)) #1

declare dso_local dereferenceable(272) %"class.std::basic_ostream"* @_ZStlsISt11char_traitsIcEERSt13basic_ostreamIcT_ES5_c(%"class.std::basic_ostream"* dereferenceable(272), i8 signext) #1

; Function Attrs: noinline uwtable
define internal void @_GLOBAL__sub_I_905.cpp() #0 section ".text.startup" {
  call void @__cxx_global_var_init()
  ret void
}


!llvm.module.flags = !{!0}
!llvm.ident = !{!1}

!0 = !{i32 1, !"wchar_size", i32 4}
!1 = !{!"clang version 10.0.0-4ubuntu1 "}
